target datalayout = "e-m:e-p270:32:32-p271:32:32-p272:64:64-i64:64-i128:128-f80:128-n8:16:32:64-S128"
target triple = "x86_64-unknown-linux-gnu"

@.str.1 = private unnamed_addr constant [22 x i8] c"../qemu/util/bitmap.c\00", align 1
@__func__.bitmap_copy_and_clear_atomic = private unnamed_addr constant [29 x i8] c"bitmap_copy_and_clear_atomic\00", align 1

; Function Attrs: nounwind sspstrong uwtable
define dso_local void @bitmap_copy_and_clear_atomic(ptr noundef %dst, ptr noundef %src, i64 noundef %nr) #0 {
entry:
  %dst.addr = alloca ptr, align 8
  %src.addr = alloca ptr, align 8
  %nr.addr = alloca i64, align 8
  %tmp = alloca i64, align 8
  %tmp3 = alloca i64, align 8
  %.atomictmp = alloca i64, align 8
  %atomic-temp = alloca i64, align 8
  store ptr %dst, ptr %dst.addr, align 8
  store ptr %src, ptr %src.addr, align 8
  store i64 %nr, ptr %nr.addr, align 8
  br label %while.cond

while.cond:                                       ; preds = %while.end, %entry
  %0 = load i64, ptr %nr.addr, align 8
  %cmp = icmp sgt i64 %0, 0
  br i1 %cmp, label %while.body, label %while.end5

while.body:                                       ; preds = %while.cond
  br label %while.cond1

while.cond1:                                      ; preds = %do.end, %while.body
  br i1 false, label %while.body2, label %while.end

while.body2:                                      ; preds = %while.cond1
  br label %do.body

do.body:                                          ; preds = %while.body2
  call void @g_assertion_message_expr(ptr noundef null, ptr noundef @.str.1, i32 noundef 339, ptr noundef @__func__.bitmap_copy_and_clear_atomic, ptr noundef null) #8
  unreachable

do.end:                                           ; No predecessors!
  br label %while.cond1

while.end:                                        ; preds = %while.cond1
  %1 = load ptr, ptr %src.addr, align 8
  store i64 0, ptr %.atomictmp, align 8
  %2 = load i64, ptr %.atomictmp, align 8
  %3 = atomicrmw xchg ptr %1, i64 %2 seq_cst, align 8
  store i64 %3, ptr %atomic-temp, align 8
  %4 = load i64, ptr %atomic-temp, align 8
  store i64 %4, ptr %tmp3, align 8
  %5 = load i64, ptr %tmp3, align 8
  store i64 %5, ptr %tmp, align 8
  %6 = load i64, ptr %tmp, align 8
  %7 = load ptr, ptr %dst.addr, align 8
  store i64 %6, ptr %7, align 8
  %8 = load ptr, ptr %dst.addr, align 8
  %incdec.ptr = getelementptr i64, ptr %8, i32 1
  store ptr %incdec.ptr, ptr %dst.addr, align 8
  %9 = load ptr, ptr %src.addr, align 8
  %incdec.ptr4 = getelementptr i64, ptr %9, i32 1
  store ptr %incdec.ptr4, ptr %src.addr, align 8
  %10 = load i64, ptr %nr.addr, align 8
  %sub = sub i64 %10, 64
  store i64 %sub, ptr %nr.addr, align 8
  br label %while.cond, !llvm.loop !21

while.end5:                                       ; preds = %while.cond
  ret void
}