; Function Attrs: nofree norecurse nounwind sspstrong memory(argmem: readwrite) uwtable
define dso_local void @bitmap_copy_and_clear_atomic(ptr noundef writeonly captures(none) %dst, ptr noundef captures(none) %src, i64 noundef %nr) local_unnamed_addr #4 {
entry:
  %cmp4 = icmp sgt i64 %nr, 0
  br i1 %cmp4, label %while.end, label %while.end5

while.end:                                        ; preds = %entry, %while.end
  %dst.addr.07 = phi ptr [ %incdec.ptr, %while.end ], [ %dst, %entry ]
  %src.addr.06 = phi ptr [ %incdec.ptr4, %while.end ], [ %src, %entry ]
  %nr.addr.05 = phi i64 [ %sub, %while.end ], [ %nr, %entry ]
  %0 = atomicrmw xchg ptr %src.addr.06, i64 0 seq_cst, align 8
  store i64 %0, ptr %dst.addr.07, align 8
  %incdec.ptr = getelementptr i8, ptr %dst.addr.07, i64 8
  %incdec.ptr4 = getelementptr i8, ptr %src.addr.06, i64 8
  %sub = add nsw i64 %nr.addr.05, -64
  %cmp = icmp samesign ugt i64 %nr.addr.05, 64
  br i1 %cmp, label %while.end, label %while.end5, !llvm.loop !18

while.end5:                                       ; preds = %while.end, %entry
  ret void
}